target datalayout = "e-m:e-p270:32:32-p271:32:32-p272:64:64-i64:64-i128:128-f80:128-n8:16:32:64-S128"
target triple = "x86_64-pc-linux-gnu"

%class.OopHandle = type { ptr }
%class.MemoryPool = type <{ ptr, ptr, i32, [4 x i8], i64, i64, i8, [7 x i8], [5 x ptr], i32, [4 x i8], %class.MemoryUsage, %class.MemoryUsage, ptr, ptr, ptr, ptr, %class.OopHandle, i8, [7 x i8] }>
%class.MemoryUsage = type { i64, i64, i64, i64 }
%class.SensorInfo = type { %class.OopHandle, i8, i64, i32, i32, %class.MemoryUsage }
%class.GrowableArrayBase = type { i32, i32 }
%class.GrowableArrayView = type { %class.GrowableArrayBase, ptr }

@_ZN13MemoryService11_pools_listE = external global ptr, align 8

; Function Attrs: mustprogress nounwind uwtable
define linkonce_odr hidden noundef nonnull align 8 dereferenceable(8) ptr @_ZN17GrowableArrayViewIP10MemoryPoolE2atEi(ptr noundef nonnull align 8 dereferenceable(16) %0, i32 noundef %1) #1 comdat align 2 {
  %3 = alloca ptr, align 8
  %4 = alloca i32, align 4
  store ptr %0, ptr %3, align 8
  store i32 %1, ptr %4, align 4
  %5 = load ptr, ptr %3, align 8
  %6 = getelementptr inbounds %class.GrowableArrayView, ptr %5, i32 0, i32 1
  %7 = load ptr, ptr %6, align 8
  %8 = load i32, ptr %4, align 4
  %9 = sext i32 %8 to i64
  %10 = getelementptr inbounds ptr, ptr %7, i64 %9
  ret ptr %10
}

; Function Attrs: mustprogress nounwind uwtable
define linkonce_odr hidden noundef i32 @_ZNK17GrowableArrayBase6lengthEv(ptr noundef nonnull align 4 dereferenceable(8) %0) #1 comdat align 2 {
  %2 = alloca ptr, align 8
  store ptr %0, ptr %2, align 8
  %3 = load ptr, ptr %2, align 8
  %4 = getelementptr inbounds %class.GrowableArrayBase, ptr %3, i32 0, i32 0
  %5 = load i32, ptr %4, align 4
  ret i32 %5
}

; Function Attrs: mustprogress nounwind uwtable
define linkonce_odr hidden noundef ptr @_ZN10MemoryPool15gc_usage_sensorEv(ptr noundef nonnull align 8 dereferenceable(201) %0) #1 comdat align 2 {
  %2 = alloca ptr, align 8
  store ptr %0, ptr %2, align 8
  %3 = load ptr, ptr %2, align 8
  %4 = getelementptr inbounds %class.MemoryPool, ptr %3, i32 0, i32 16
  %5 = load ptr, ptr %4, align 8
  ret ptr %5
}

; Function Attrs: mustprogress nounwind uwtable
define linkonce_odr hidden noundef zeroext i1 @_ZN10SensorInfo20has_pending_requestsEv(ptr noundef nonnull align 8 dereferenceable(64) %0) #1 comdat align 2 {
  %2 = alloca ptr, align 8
  store ptr %0, ptr %2, align 8
  %3 = load ptr, ptr %2, align 8
  %4 = getelementptr inbounds %class.SensorInfo, ptr %3, i32 0, i32 3
  %5 = load i32, ptr %4, align 8
  %6 = icmp sgt i32 %5, 0
  br i1 %6, label %11, label %7

7:                                                ; preds = %1
  %8 = getelementptr inbounds %class.SensorInfo, ptr %3, i32 0, i32 4
  %9 = load i32, ptr %8, align 4
  %10 = icmp sgt i32 %9, 0
  br label %11

11:                                               ; preds = %7, %1
  %12 = phi i1 [ true, %1 ], [ %10, %7 ]
  ret i1 %12
}

; Function Attrs: mustprogress nounwind uwtable
define linkonce_odr hidden noundef ptr @_ZN10MemoryPool12usage_sensorEv(ptr noundef nonnull align 8 dereferenceable(201) %0) #1 comdat align 2 {
  %2 = alloca ptr, align 8
  store ptr %0, ptr %2, align 8
  %3 = load ptr, ptr %2, align 8
  %4 = getelementptr inbounds %class.MemoryPool, ptr %3, i32 0, i32 15
  %5 = load ptr, ptr %4, align 8
  ret ptr %5
}

; Function Attrs: mustprogress nounwind uwtable
define linkonce_odr hidden noundef ptr @_ZN13MemoryService15get_memory_poolEi(i32 noundef %0) #1 comdat align 2 {
  %2 = alloca i32, align 4
  store i32 %0, ptr %2, align 4
  %3 = load ptr, ptr @_ZN13MemoryService11_pools_listE, align 8
  %4 = load i32, ptr %2, align 4
  %5 = call noundef nonnull align 8 dereferenceable(8) ptr @_ZN17GrowableArrayViewIP10MemoryPoolE2atEi(ptr noundef nonnull align 8 dereferenceable(16) %3, i32 noundef %4)
  %6 = load ptr, ptr %5, align 8
  ret ptr %6
}

; Function Attrs: mustprogress nounwind uwtable
define linkonce_odr hidden noundef i32 @_ZN13MemoryService16num_memory_poolsEv() #1 comdat align 2 {
  %1 = load ptr, ptr @_ZN13MemoryService11_pools_listE, align 8
  %2 = call noundef i32 @_ZNK17GrowableArrayBase6lengthEv(ptr noundef nonnull align 4 dereferenceable(8) %1)
  ret i32 %2
}

; Function Attrs: mustprogress nounwind uwtable
define hidden noundef zeroext i1 @_ZN17LowMemoryDetector20has_pending_requestsEv() #1 align 2 {
  %1 = alloca i8, align 1
  %2 = alloca i32, align 4
  %3 = alloca i32, align 4
  %4 = alloca ptr, align 8
  %5 = alloca ptr, align 8
  %6 = alloca ptr, align 8
  store i8 0, ptr %1, align 1
  %7 = call noundef i32 @_ZN13MemoryService16num_memory_poolsEv()
  store i32 %7, ptr %2, align 4
  store i32 0, ptr %3, align 4
  br label %8

8:                                                ; preds = %43, %0
  %9 = load i32, ptr %3, align 4
  %10 = load i32, ptr %2, align 4
  %11 = icmp slt i32 %9, %10
  br i1 %11, label %12, label %46

12:                                               ; preds = %8
  %13 = load i32, ptr %3, align 4
  %14 = call noundef ptr @_ZN13MemoryService15get_memory_poolEi(i32 noundef %13)
  store ptr %14, ptr %4, align 8
  %15 = load ptr, ptr %4, align 8
  %16 = call noundef ptr @_ZN10MemoryPool12usage_sensorEv(ptr noundef nonnull align 8 dereferenceable(201) %15)
  store ptr %16, ptr %5, align 8
  %17 = load ptr, ptr %5, align 8
  %18 = icmp ne ptr %17, null
  br i1 %18, label %19, label %28

19:                                               ; preds = %12
  %20 = load i8, ptr %1, align 1
  %21 = trunc i8 %20 to i1
  br i1 %21, label %25, label %22

22:                                               ; preds = %19
  %23 = load ptr, ptr %5, align 8
  %24 = call noundef zeroext i1 @_ZN10SensorInfo20has_pending_requestsEv(ptr noundef nonnull align 8 dereferenceable(64) %23)
  br label %25

25:                                               ; preds = %22, %19
  %26 = phi i1 [ true, %19 ], [ %24, %22 ]
  %27 = zext i1 %26 to i8
  store i8 %27, ptr %1, align 1
  br label %28

28:                                               ; preds = %25, %12
  %29 = load ptr, ptr %4, align 8
  %30 = call noundef ptr @_ZN10MemoryPool15gc_usage_sensorEv(ptr noundef nonnull align 8 dereferenceable(201) %29)
  store ptr %30, ptr %6, align 8
  %31 = load ptr, ptr %6, align 8
  %32 = icmp ne ptr %31, null
  br i1 %32, label %33, label %42

33:                                               ; preds = %28
  %34 = load i8, ptr %1, align 1
  %35 = trunc i8 %34 to i1
  br i1 %35, label %39, label %36

36:                                               ; preds = %33
  %37 = load ptr, ptr %6, align 8
  %38 = call noundef zeroext i1 @_ZN10SensorInfo20has_pending_requestsEv(ptr noundef nonnull align 8 dereferenceable(64) %37)
  br label %39

39:                                               ; preds = %36, %33
  %40 = phi i1 [ true, %33 ], [ %38, %36 ]
  %41 = zext i1 %40 to i8
  store i8 %41, ptr %1, align 1
  br label %42

42:                                               ; preds = %39, %28
  br label %43

43:                                               ; preds = %42
  %44 = load i32, ptr %3, align 4
  %45 = add nsw i32 %44, 1
  store i32 %45, ptr %3, align 4
  br label %8, !llvm.loop !6

46:                                               ; preds = %8
  %47 = load i8, ptr %1, align 1
  %48 = trunc i8 %47 to i1
  ret i1 %48
}