; Function Attrs: mustprogress nofree norecurse nosync nounwind willreturn memory(read, inaccessiblemem: none) uwtable
define hidden noundef zeroext i1 @_ZN17LowMemoryDetector20has_pending_requestsEv() local_unnamed_addr #0 align 2 {
  %1 = load ptr, ptr @_ZN13MemoryService11_pools_listE, align 8
  %2 = load i32, ptr %1, align 4
  %3 = icmp sgt i32 %2, 0
  br i1 %3, label %.lr.ph, label %._crit_edge

.lr.ph:                                           ; preds = %0
  %4 = getelementptr inbounds i8, ptr %1, i64 8
  %5 = load ptr, ptr %4, align 8
  %wide.trip.count = zext nneg i32 %2 to i64
  br label %6

6:                                                ; preds = %.lr.ph, %40
  %indvars.iv = phi i64 [ 0, %.lr.ph ], [ %indvars.iv.next, %40 ]
  %.017 = phi i8 [ 0, %.lr.ph ], [ %.2, %40 ]
  %7 = getelementptr inbounds ptr, ptr %5, i64 %indvars.iv
  %8 = load ptr, ptr %7, align 8
  %9 = getelementptr inbounds i8, ptr %8, i64 176
  %10 = load ptr, ptr %9, align 8
  %.not = icmp eq ptr %10, null
  br i1 %.not, label %24, label %11

11:                                               ; preds = %6
  %12 = trunc nuw i8 %.017 to i1
  br i1 %12, label %21, label %13

13:                                               ; preds = %11
  %14 = getelementptr inbounds i8, ptr %10, i64 24
  %15 = load i32, ptr %14, align 8
  %16 = icmp sgt i32 %15, 0
  %17 = getelementptr inbounds i8, ptr %10, i64 28
  %18 = load i32, ptr %17, align 4
  %19 = icmp sgt i32 %18, 0
  %20 = select i1 %16, i1 true, i1 %19
  br label %21

21:                                               ; preds = %13, %11
  %22 = phi i1 [ true, %11 ], [ %20, %13 ]
  %23 = zext i1 %22 to i8
  br label %24

24:                                               ; preds = %21, %6
  %.1 = phi i8 [ %23, %21 ], [ %.017, %6 ]
  %25 = getelementptr inbounds i8, ptr %8, i64 184
  %26 = load ptr, ptr %25, align 8
  %.not15 = icmp eq ptr %26, null
  br i1 %.not15, label %40, label %27

27:                                               ; preds = %24
  %28 = trunc nuw i8 %.1 to i1
  br i1 %28, label %37, label %29

29:                                               ; preds = %27
  %30 = getelementptr inbounds i8, ptr %26, i64 24
  %31 = load i32, ptr %30, align 8
  %32 = icmp sgt i32 %31, 0
  %33 = getelementptr inbounds i8, ptr %26, i64 28
  %34 = load i32, ptr %33, align 4
  %35 = icmp sgt i32 %34, 0
  %36 = select i1 %32, i1 true, i1 %35
  br label %37

37:                                               ; preds = %29, %27
  %38 = phi i1 [ true, %27 ], [ %36, %29 ]
  %39 = zext i1 %38 to i8
  br label %40

40:                                               ; preds = %24, %37
  %.2 = phi i8 [ %39, %37 ], [ %.1, %24 ]
  %indvars.iv.next = add nuw nsw i64 %indvars.iv, 1
  %exitcond.not = icmp eq i64 %indvars.iv.next, %wide.trip.count
  br i1 %exitcond.not, label %._crit_edge.loopexit, label %6, !llvm.loop !6

._crit_edge.loopexit:                             ; preds = %40
  %41 = trunc nuw i8 %.2 to i1
  br label %._crit_edge

._crit_edge:                                      ; preds = %._crit_edge.loopexit, %0
  %.0.lcssa = phi i1 [ false, %0 ], [ %41, %._crit_edge.loopexit ]
  ret i1 %.0.lcssa
}